target datalayout = "e-m:e-p270:32:32-p271:32:32-p272:64:64-i64:64-i128:128-f80:128-n8:16:32:64-S128"
target triple = "x86_64-pc-linux-gnu"

%struct.jv = type { i8, i8, i16, i32, %union.anon }
%union.anon = type { ptr }
%struct.jq_state = type { ptr, ptr, ptr, ptr, ptr, %struct.jv, %struct.stack, i32, i32, i32, %struct.jv, %struct.jv, i32, i32, i32, i32, i32, %struct.jv, %struct.jv, %struct.jv, ptr, ptr, ptr, ptr, ptr, ptr }
%struct.stack = type { ptr, i32, i32 }

; Function Attrs: nounwind uwtable
define internal void @path_append(ptr noundef %0, i64 %1, ptr %2, i64 %3, ptr %4) #0 {
  %6 = alloca %struct.jv, align 8
  %7 = alloca %struct.jv, align 8
  %8 = alloca ptr, align 8
  %9 = alloca i32, align 4
  %10 = alloca %struct.jv, align 8
  %11 = alloca %struct.jv, align 8
  %12 = alloca i32, align 4
  %13 = alloca %struct.jv, align 8
  %14 = getelementptr inbounds nuw { i64, ptr }, ptr %6, i32 0, i32 0
  store i64 %1, ptr %14, align 8
  %15 = getelementptr inbounds nuw { i64, ptr }, ptr %6, i32 0, i32 1
  store ptr %2, ptr %15, align 8
  %16 = getelementptr inbounds nuw { i64, ptr }, ptr %7, i32 0, i32 0
  store i64 %3, ptr %16, align 8
  %17 = getelementptr inbounds nuw { i64, ptr }, ptr %7, i32 0, i32 1
  store ptr %4, ptr %17, align 8
  store ptr %0, ptr %8, align 8, !tbaa !4
  %18 = load ptr, ptr %8, align 8, !tbaa !4
  %19 = getelementptr inbounds nuw %struct.jq_state, ptr %18, i32 0, i32 12
  %20 = load i32, ptr %19, align 8, !tbaa !42
  %21 = icmp eq i32 %20, 0
  br i1 %21, label %22, label %89

22:                                               ; preds = %5
  %23 = load ptr, ptr %8, align 8, !tbaa !4
  %24 = getelementptr inbounds nuw %struct.jq_state, ptr %23, i32 0, i32 10
  %25 = getelementptr inbounds nuw { i64, ptr }, ptr %24, i32 0, i32 0
  %26 = load i64, ptr %25, align 8
  %27 = getelementptr inbounds nuw { i64, ptr }, ptr %24, i32 0, i32 1
  %28 = load ptr, ptr %27, align 8
  %29 = call i32 @jv_get_kind(i64 %26, ptr %28)
  %30 = icmp eq i32 %29, 6
  br i1 %30, label %31, label %89

31:                                               ; preds = %22
  call void @llvm.lifetime.start.p0(i64 4, ptr %9) #7
  %32 = load ptr, ptr %8, align 8, !tbaa !4
  %33 = getelementptr inbounds nuw %struct.jq_state, ptr %32, i32 0, i32 10
  %34 = getelementptr inbounds nuw { i64, ptr }, ptr %33, i32 0, i32 0
  %35 = load i64, ptr %34, align 8
  %36 = getelementptr inbounds nuw { i64, ptr }, ptr %33, i32 0, i32 1
  %37 = load ptr, ptr %36, align 8
  %38 = call { i64, ptr } @jv_copy(i64 %35, ptr %37)
  %39 = getelementptr inbounds nuw { i64, ptr }, ptr %10, i32 0, i32 0
  %40 = extractvalue { i64, ptr } %38, 0
  store i64 %40, ptr %39, align 8
  %41 = getelementptr inbounds nuw { i64, ptr }, ptr %10, i32 0, i32 1
  %42 = extractvalue { i64, ptr } %38, 1
  store ptr %42, ptr %41, align 8
  %43 = getelementptr inbounds nuw { i64, ptr }, ptr %10, i32 0, i32 0
  %44 = load i64, ptr %43, align 8
  %45 = getelementptr inbounds nuw { i64, ptr }, ptr %10, i32 0, i32 1
  %46 = load ptr, ptr %45, align 8
  %47 = call i32 @jv_array_length(i64 %44, ptr %46)
  store i32 %47, ptr %9, align 4, !tbaa !21
  %48 = load ptr, ptr %8, align 8, !tbaa !4
  %49 = getelementptr inbounds nuw %struct.jq_state, ptr %48, i32 0, i32 10
  call void @llvm.lifetime.start.p0(i64 16, ptr %11) #7
  %50 = load ptr, ptr %8, align 8, !tbaa !4
  %51 = getelementptr inbounds nuw %struct.jq_state, ptr %50, i32 0, i32 10
  %52 = getelementptr inbounds nuw { i64, ptr }, ptr %51, i32 0, i32 0
  %53 = load i64, ptr %52, align 8
  %54 = getelementptr inbounds nuw { i64, ptr }, ptr %51, i32 0, i32 1
  %55 = load ptr, ptr %54, align 8
  %56 = getelementptr inbounds nuw { i64, ptr }, ptr %6, i32 0, i32 0
  %57 = load i64, ptr %56, align 8
  %58 = getelementptr inbounds nuw { i64, ptr }, ptr %6, i32 0, i32 1
  %59 = load ptr, ptr %58, align 8
  %60 = call { i64, ptr } @jv_array_append(i64 %53, ptr %55, i64 %57, ptr %59)
  %61 = getelementptr inbounds nuw { i64, ptr }, ptr %11, i32 0, i32 0
  %62 = extractvalue { i64, ptr } %60, 0
  store i64 %62, ptr %61, align 8
  %63 = getelementptr inbounds nuw { i64, ptr }, ptr %11, i32 0, i32 1
  %64 = extractvalue { i64, ptr } %60, 1
  store ptr %64, ptr %63, align 8
  call void @llvm.memcpy.p0.p0.i64(ptr align 8 %49, ptr align 8 %11, i64 16, i1 false), !tbaa.struct !18
  call void @llvm.lifetime.end.p0(i64 16, ptr %11) #7
  call void @llvm.lifetime.start.p0(i64 4, ptr %12) #7
  %65 = load ptr, ptr %8, align 8, !tbaa !4
  %66 = getelementptr inbounds nuw %struct.jq_state, ptr %65, i32 0, i32 10
  %67 = getelementptr inbounds nuw { i64, ptr }, ptr %66, i32 0, i32 0
  %68 = load i64, ptr %67, align 8
  %69 = getelementptr inbounds nuw { i64, ptr }, ptr %66, i32 0, i32 1
  %70 = load ptr, ptr %69, align 8
  %71 = call { i64, ptr } @jv_copy(i64 %68, ptr %70)
  %72 = getelementptr inbounds nuw { i64, ptr }, ptr %13, i32 0, i32 0
  %73 = extractvalue { i64, ptr } %71, 0
  store i64 %73, ptr %72, align 8
  %74 = getelementptr inbounds nuw { i64, ptr }, ptr %13, i32 0, i32 1
  %75 = extractvalue { i64, ptr } %71, 1
  store ptr %75, ptr %74, align 8
  %76 = getelementptr inbounds nuw { i64, ptr }, ptr %13, i32 0, i32 0
  %77 = load i64, ptr %76, align 8
  %78 = getelementptr inbounds nuw { i64, ptr }, ptr %13, i32 0, i32 1
  %79 = load ptr, ptr %78, align 8
  %80 = call i32 @jv_array_length(i64 %77, ptr %79)
  store i32 %80, ptr %12, align 4, !tbaa !21
  %81 = load ptr, ptr %8, align 8, !tbaa !4
  %82 = getelementptr inbounds nuw %struct.jq_state, ptr %81, i32 0, i32 11
  %83 = getelementptr inbounds nuw { i64, ptr }, ptr %82, i32 0, i32 0
  %84 = load i64, ptr %83, align 8
  %85 = getelementptr inbounds nuw { i64, ptr }, ptr %82, i32 0, i32 1
  %86 = load ptr, ptr %85, align 8
  call void @jv_free(i64 %84, ptr %86)
  %87 = load ptr, ptr %8, align 8, !tbaa !4
  %88 = getelementptr inbounds nuw %struct.jq_state, ptr %87, i32 0, i32 11
  call void @llvm.memcpy.p0.p0.i64(ptr align 8 %88, ptr align 8 %7, i64 16, i1 false), !tbaa.struct !18
  call void @llvm.lifetime.end.p0(i64 4, ptr %12) #7
  call void @llvm.lifetime.end.p0(i64 4, ptr %9) #7
  br label %98

89:                                               ; preds = %22, %5
  %90 = getelementptr inbounds nuw { i64, ptr }, ptr %6, i32 0, i32 0
  %91 = load i64, ptr %90, align 8
  %92 = getelementptr inbounds nuw { i64, ptr }, ptr %6, i32 0, i32 1
  %93 = load ptr, ptr %92, align 8
  call void @jv_free(i64 %91, ptr %93)
  %94 = getelementptr inbounds nuw { i64, ptr }, ptr %7, i32 0, i32 0
  %95 = load i64, ptr %94, align 8
  %96 = getelementptr inbounds nuw { i64, ptr }, ptr %7, i32 0, i32 1
  %97 = load ptr, ptr %96, align 8
  call void @jv_free(i64 %95, ptr %97)
  br label %98

98:                                               ; preds = %89, %31
  ret void
}