; Function Attrs: nounwind uwtable
define internal fastcc void @path_append(ptr noundef captures(none) %0, i64 %1, ptr %2, i64 %3, ptr %4) unnamed_addr #0 {
  %6 = getelementptr inbounds nuw i8, ptr %0, i64 120
  %7 = load i32, ptr %6, align 8, !tbaa !27
  %8 = icmp eq i32 %7, 0
  br i1 %8, label %9, label %36

9:                                                ; preds = %5
  %10 = getelementptr inbounds nuw i8, ptr %0, i64 88
  %11 = load i64, ptr %10, align 8
  %12 = getelementptr inbounds nuw i8, ptr %0, i64 96
  %13 = load ptr, ptr %12, align 8
  %14 = tail call i32 @jv_get_kind(i64 %11, ptr %13) #13
  %15 = icmp eq i32 %14, 6
  br i1 %15, label %16, label %36

16:                                               ; preds = %9
  %17 = load i64, ptr %10, align 8
  %18 = load ptr, ptr %12, align 8
  %19 = tail call { i64, ptr } @jv_copy(i64 %17, ptr %18) #13
  %20 = extractvalue { i64, ptr } %19, 0
  %21 = extractvalue { i64, ptr } %19, 1
  %22 = tail call i32 @jv_array_length(i64 %20, ptr %21) #13
  %23 = load i64, ptr %10, align 8
  %24 = load ptr, ptr %12, align 8
  %25 = tail call { i64, ptr } @jv_array_append(i64 %23, ptr %24, i64 %1, ptr %2) #13
  %26 = extractvalue { i64, ptr } %25, 0
  %27 = extractvalue { i64, ptr } %25, 1
  store i64 %26, ptr %10, align 8
  store ptr %27, ptr %12, align 8, !tbaa !19
  %28 = tail call { i64, ptr } @jv_copy(i64 %26, ptr %27) #13
  %29 = extractvalue { i64, ptr } %28, 0
  %30 = extractvalue { i64, ptr } %28, 1
  %31 = tail call i32 @jv_array_length(i64 %29, ptr %30) #13
  %32 = getelementptr inbounds nuw i8, ptr %0, i64 104
  %33 = load i64, ptr %32, align 8
  %34 = getelementptr inbounds nuw i8, ptr %0, i64 112
  %35 = load ptr, ptr %34, align 8
  tail call void @jv_free(i64 %33, ptr %35) #13
  store i64 %3, ptr %32, align 8
  store ptr %4, ptr %34, align 8, !tbaa !19
  br label %37

36:                                               ; preds = %9, %5
  tail call void @jv_free(i64 %1, ptr %2) #13
  tail call void @jv_free(i64 %3, ptr %4) #13
  br label %37

37:                                               ; preds = %36, %16
  ret void
}